Certificate:
    Data:
        Version: 3 (0x2)
        Serial Number: 4097 (0x1001)
    Signature Algorithm: md5WithRSAEncryption
        Issuer: C=US, ST=US, L=US, O=US, OU=US, CN=US/emailAddress=US
        Validity
            Not Before: Mar 27 00:37:24 2023 GMT
            Not After : Mar 26 00:37:24 2024 GMT
        Subject: C=US, ST=US, O=US, OU=US, CN=server/emailAddress=server
        Subject Public Key Info:
            Public Key Algorithm: rsaEncryption
                RSA Public-Key: (4096 bit)
                Modulus:
                    00:b2:98:8d:ab:d4:7b:f1:0e:a9:2d:95:38:57:81:
                    bf:9e:0c:8a:e7:fb:c0:b6:39:e2:99:8b:3f:21:d5:
                    e6:84:17:76:39:78:c9:6c:48:ab:5f:78:d3:63:35:
                    8a:71:84:c0:da:e6:6b:05:b2:98:2b:d9:32:a2:5a:
                    25:b1:7b:fd:4f:90:ff:91:3a:b8:21:81:29:89:2e:
                    aa:ad:f9:09:e3:7d:55:1e:29:51:97:f2:3a:21:9e:
                    94:50:c3:75:8b:89:9e:e6:8a:28:a4:e0:22:62:44:
                    49:91:c8:77:a0:6f:67:2b:74:05:76:9b:ea:42:03:
                    19:31:65:5b:56:f3:fe:c7:d5:d9:04:6f:7e:4b:31:
                    bd:fe:5c:91:b0:eb:3c:ee:36:fe:ff:04:da:f3:88:
                    ce:70:b3:7c:6f:08:0e:c6:12:6a:c0:63:e8:a4:d3:
                    a2:87:0f:91:a1:c5:15:80:24:03:35:ba:d2:64:a7:
                    7b:00:d7:0e:fb:1f:96:51:20:19:bb:91:ec:7e:62:
                    f8:73:4e:76:38:5c:e2:ec:e9:55:c8:95:ea:8b:76:
                    82:7e:02:c0:87:c7:7b:ec:eb:83:b0:ae:a6:b9:8b:
                    6a:fa:42:04:f0:29:3a:0e:3f:bf:0a:32:ae:c0:b6:
                    b7:4b:48:7f:89:15:4a:22:de:56:df:94:6a:9d:2c:
                    30:92:73:4c:dd:6d:ad:e5:3e:2f:65:58:02:34:3b:
                    a4:ef:0a:a1:ba:f7:09:63:1e:0a:12:2f:fc:1c:9f:
                    8a:f6:23:57:58:3c:b4:b3:bf:97:b8:86:e7:bd:ea:
                    84:00:74:23:be:02:cc:8e:47:f2:67:2a:b7:7b:ae:
                    88:c3:dc:5c:c9:6d:d3:e8:c2:d5:b0:41:77:90:0d:
                    ba:59:b5:55:cd:8c:e3:de:ec:eb:4f:50:ff:b3:b2:
                    6a:1c:88:4e:b8:ae:75:9a:69:1f:02:d3:a5:39:ea:
                    d0:a6:ef:b8:d4:95:c9:ef:3f:c7:d1:f1:39:6e:3c:
                    b1:19:22:cf:39:70:e1:77:65:e5:b0:57:83:04:a2:
                    55:0d:29:7b:8b:38:1c:c5:e7:b5:51:1e:68:14:08:
                    77:8c:c2:57:b4:e8:44:1c:07:97:db:de:23:85:58:
                    29:4c:26:65:b2:be:0b:67:b9:e6:d8:57:35:6c:b3:
                    97:21:57:e2:5f:1e:6f:cd:42:ab:f3:c1:18:d6:b7:
                    e7:9a:18:25:28:07:61:32:05:dd:e5:38:52:c1:58:
                    4f:fa:6f:91:b4:98:7a:5a:1f:cd:ca:06:26:a0:e6:
                    fd:dd:ef:83:46:3d:96:b4:bd:e6:e4:4a:e4:af:39:
                    a4:6b:78:10:84:8b:61:e5:19:03:48:e4:0b:61:c8:
                    b7:d8:89
                Exponent: 65537 (0x10001)
        X509v3 extensions:
            X509v3 Basic Constraints: 
                CA:FALSE
            Netscape Comment: 
                OpenSSL Generated Certificate
            X509v3 Subject Key Identifier: 
                7B:6C:05:42:46:14:4C:34:7C:DE:98:A5:F9:B4:B6:C0:F3:AC:C4:5B
            X509v3 Authority Key Identifier: 
                DirName:/C=US/ST=US/L=US/O=US/OU=US/CN=US/emailAddress=US
                serial:BF:87:34:C9:E4:A7:C6:0B

    Signature Algorithm: md5WithRSAEncryption
         2d:8f:e0:af:e1:96:03:5f:e9:53:12:a7:98:49:2e:6f:30:31:
         9c:8d:a5:a3:16:db:79:58:59:85:63:85:2e:d3:1b:2b:7b:96:
         cf:98:28:75:10:9c:99:93:d2:e2:3f:b2:49:21:44:cf:d6:a1:
         ea:0e:0b:a5:e4:52:aa:23:04:a6:5b:41:30:40:d7:e0:fc:b2:
         7b:d0:3b:d5:16:6f:dc:6b:0b:62:b9:83:42:ac:a9:9d:66:83:
         76:3e:8d:a0:62:f1:81:b5:04:7a:87:57:8e:a5:8f:50:fd:f3:
         dd:95:b8:bb:50:6f:80:66:e9:44:39:ac:9f:a4:81:91:2d:61:
         c8:e1:a6:1a:04:be:8f:e0:9a:16:64:a4:db:32:22:c5:82:38:
         dd:eb:16:c0:92:9d:d1:ff:58:34:94:40:3f:66:ec:d7:5e:57:
         ae:e8:f2:6f:83:ed:56:ec:2c:33:c2:39:90:00:02:92:db:39:
         d2:c1:06:db:75:08:2d:ad:81:f8:b6:77:9f:6b:f8:e9:94:bf:
         81:24:20:ff:09:de:38:f9:11:b6:e2:0f:26:e5:e2:8b:37:f6:
         36:ec:33:d5:5f:9f:23:06:61:a1:39:47:23:69:c4:9a:22:f7:
         c8:26:d7:8e:2e:86:72:2b:a0:5a:6e:39:d4:d1:bd:af:36:d1:
         98:38:6b:0e:cb:0e:ea:cf:e1:ba:97:78:db:4f:d4:6c:18:9e:
         06:05:ce:fd:c9:80:27:a8:ff:e5:e9:0d:33:c6:e4:cd:00:06:
         88:d5:c0:69:14:78:72:70:24:64:74:65:50:43:c2:98:12:1e:
         40:33:f5:eb:f9:e3:58:0d:75:82:bb:21:67:b9:4d:79:01:47:
         2c:de:5e:83:40:46:93:0e:81:58:ef:a1:6c:9b:ff:78:c3:ab:
         6d:80:cf:f0:81:80:e0:77:23:f2:73:bf:28:2b:77:58:52:e9:
         8c:cb:40:a6:fe:0f:2f:50:03:c1:72:eb:86:34:47:5c:e1:41:
         64:b0:fc:1a:94:d0:28:12:9c:bb:64:6c:f2:ca:f5:7f:41:17:
         e1:4f:5d:cf:e8:06:f4:3c:a7:68:27:fd:ac:74:a0:42:d6:b8:
         a9:30:47:b2:fe:92:17:9f:63:d9:df:47:64:65:e2:08:c8:5c:
         bf:eb:f1:0d:22:8a:c8:59:30:37:bd:9c:39:fd:41:84:64:07:
         ae:4b:94:08:76:60:85:af:f7:53:9b:6e:9f:d2:d2:5e:b1:05:
         01:68:b0:c7:50:15:2a:ff:31:b9:b9:86:55:bc:ef:fc:a1:36:
         3d:14:d8:fd:91:da:72:96:29:d7:98:19:3b:30:b4:3f:c0:ed:
         05:42:6e:12:38:7c:ca:36
-----BEGIN CERTIFICATE-----
MIIGEjCCA/qgAwIBAgICEAEwDQYJKoZIhvcNAQEEBQAwYTELMAkGA1UEBhMCVVMx
CzAJBgNVBAgMAlVTMQswCQYDVQQHDAJVUzELMAkGA1UECgwCVVMxCzAJBgNVBAsM
AlVTMQswCQYDVQQDDAJVUzERMA8GCSqGSIb3DQEJARYCVVMwHhcNMjMwMzI3MDAz
NzI0WhcNMjQwMzI2MDAzNzI0WjBcMQswCQYDVQQGEwJVUzELMAkGA1UECAwCVVMx
CzAJBgNVBAoMAlVTMQswCQYDVQQLDAJVUzEPMA0GA1UEAwwGc2VydmVyMRUwEwYJ
KoZIhvcNAQkBFgZzZXJ2ZXIwggIiMA0GCSqGSIb3DQEBAQUAA4ICDwAwggIKAoIC
AQCymI2r1HvxDqktlThXgb+eDIrn+8C2OeKZiz8h1eaEF3Y5eMlsSKtfeNNjNYpx
hMDa5msFspgr2TKiWiWxe/1PkP+ROrghgSmJLqqt+QnjfVUeKVGX8johnpRQw3WL
iZ7miiik4CJiREmRyHegb2crdAV2m+pCAxkxZVtW8/7H1dkEb35LMb3+XJGw6zzu
Nv7/BNrziM5ws3xvCA7GEmrAY+ik06KHD5GhxRWAJAM1utJkp3sA1w77H5ZRIBm7
kex+YvhzTnY4XOLs6VXIleqLdoJ+AsCHx3vs64Owrqa5i2r6QgTwKToOP78KMq7A
trdLSH+JFUoi3lbflGqdLDCSc0zdba3lPi9lWAI0O6TvCqG69wljHgoSL/wcn4r2
I1dYPLSzv5e4hue96oQAdCO+AsyOR/JnKrd7rojD3FzJbdPowtWwQXeQDbpZtVXN
jOPe7OtPUP+zsmociE64rnWaaR8C06U56tCm77jUlcnvP8fR8TluPLEZIs85cOF3
ZeWwV4MEolUNKXuLOBzF57VRHmgUCHeMwle06EQcB5fb3iOFWClMJmWyvgtnuebY
VzVss5chV+JfHm/NQqvzwRjWt+eaGCUoB2EyBd3lOFLBWE/6b5G0mHpaH83KBiag
5v3d74NGPZa0vebkSuSvOaRreBCEi2HlGQNI5AthyLfYiQIDAQABo4HYMIHVMAkG
A1UdEwQCMAAwLAYJYIZIAYb4QgENBB8WHU9wZW5TU0wgR2VuZXJhdGVkIENlcnRp
ZmljYXRlMB0GA1UdDgQWBBR7bAVCRhRMNHzemKX5tLbA86zEWzB7BgNVHSMEdDBy
oWWkYzBhMQswCQYDVQQGEwJVUzELMAkGA1UECAwCVVMxCzAJBgNVBAcMAlVTMQsw
CQYDVQQKDAJVUzELMAkGA1UECwwCVVMxCzAJBgNVBAMMAlVTMREwDwYJKoZIhvcN
AQkBFgJVU4IJAL+HNMnkp8YLMA0GCSqGSIb3DQEBBAUAA4ICAQAtj+Cv4ZYDX+lT
EqeYSS5vMDGcjaWjFtt5WFmFY4Uu0xsre5bPmCh1EJyZk9LiP7JJIUTP1qHqDgul
5FKqIwSmW0EwQNfg/LJ70DvVFm/cawtiuYNCrKmdZoN2Po2gYvGBtQR6h1eOpY9Q
/fPdlbi7UG+AZulEOayfpIGRLWHI4aYaBL6P4JoWZKTbMiLFgjjd6xbAkp3R/1g0
lEA/ZuzXXleu6PJvg+1W7CwzwjmQAAKS2znSwQbbdQgtrYH4tnefa/jplL+BJCD/
Cd44+RG24g8m5eKLN/Y27DPVX58jBmGhOUcjacSaIvfIJteOLoZyK6BabjnU0b2v
NtGYOGsOyw7qz+G6l3jbT9RsGJ4GBc79yYAnqP/l6Q0zxuTNAAaI1cBpFHhycCRk
dGVQQ8KYEh5AM/Xr+eNYDXWCuyFnuU15AUcs3l6DQEaTDoFY76Fsm/94w6ttgM/w
gYDgdyPyc78oK3dYUumMy0Cm/g8vUAPBcuuGNEdc4UFksPwalNAoEpy7ZGzyyvV/
QRfhT13P6Ab0PKdoJ/2sdKBC1ripMEey/pIXn2PZ30dkZeIIyFy/6/ENIorIWTA3
vZw5/UGEZAeuS5QIdmCFr/dTm26f0tJesQUBaLDHUBUq/zG5uYZVvO/8oTY9FNj9
kdpylinXmBk7MLQ/wO0FQm4SOHzKNg==
-----END CERTIFICATE-----
