Certificate:
    Data:
        Version: 3 (0x2)
        Serial Number: 4096 (0x1000)
    Signature Algorithm: md5WithRSAEncryption
        Issuer: C=US, ST=US, L=US, O=US, OU=US, CN=US/emailAddress=US
        Validity
            Not Before: Mar 27 00:30:38 2023 GMT
            Not After : Mar 26 00:30:38 2024 GMT
        Subject: C=US, ST=US, O=US, OU=US, CN=US/emailAddress=US
        Subject Public Key Info:
            Public Key Algorithm: rsaEncryption
                RSA Public-Key: (4096 bit)
                Modulus:
                    00:a3:2d:0d:b7:3a:01:c3:7e:ad:ea:44:90:2c:be:
                    f6:ec:67:58:0c:bb:04:cb:5a:de:0a:0d:de:7f:94:
                    01:13:ec:06:7e:02:b3:ad:ee:f0:3d:f3:aa:14:60:
                    4a:10:6b:c2:c3:e5:7f:43:af:82:0f:65:10:4b:ff:
                    7b:84:19:13:28:8a:00:94:8e:98:d1:6d:c8:28:b4:
                    cd:ba:52:8f:d1:69:b9:4d:8e:be:1c:cc:cd:b2:16:
                    52:5d:62:07:10:0f:38:e5:0a:31:24:a6:6a:c4:77:
                    b0:1b:a8:29:cc:5b:a4:4d:7c:45:70:74:3a:18:ad:
                    47:d9:44:8d:a3:67:df:da:b9:4c:09:cb:74:09:eb:
                    a9:35:1f:c8:db:2e:7e:0d:cd:f8:d9:d8:6d:7d:d9:
                    ab:98:5c:3e:1b:1a:9e:46:17:68:77:3d:60:45:c1:
                    72:ef:7b:9f:d2:e8:9f:87:71:f4:58:53:ab:49:e9:
                    3c:cb:79:a8:2e:6b:54:ce:87:ca:e6:97:c7:f9:60:
                    36:44:b1:cf:54:e2:34:62:26:30:00:ca:22:4f:72:
                    dd:82:11:69:dd:32:0c:a2:ea:a5:dc:bb:d9:3e:79:
                    09:ac:59:1a:5c:06:b2:27:83:9c:d0:70:2f:1a:44:
                    08:35:95:ce:6f:a1:6b:54:39:2e:01:cc:52:8d:3e:
                    90:25:b7:ac:90:11:8e:88:7f:e9:1d:e2:e2:c5:e2:
                    bb:96:fe:be:a0:45:2c:24:0d:f4:c6:ca:be:c3:9e:
                    8b:85:43:95:b9:f1:f0:cc:33:5d:f9:0a:a6:6f:c2:
                    bc:b4:99:19:8d:e3:8c:24:4f:0f:57:18:73:55:7c:
                    58:b1:2c:fb:79:4e:fb:94:da:c7:bc:a3:9d:a1:cc:
                    02:e4:4c:d8:f1:21:a7:48:fe:12:17:6b:03:1c:54:
                    1f:6f:ed:32:cb:3a:7a:90:4c:63:ce:3c:da:b5:13:
                    04:1c:1f:9e:02:33:15:be:1b:f0:8f:a7:3e:e8:0d:
                    f9:c6:22:a0:61:90:ef:7c:19:e9:b8:f0:a9:7e:cd:
                    e3:b7:43:59:5b:e5:17:4c:34:2d:35:85:c4:c3:4e:
                    f5:71:41:8c:cd:c1:d6:4f:66:47:bb:70:97:b2:4f:
                    d3:e9:f1:99:79:ec:37:a1:eb:9b:0d:fc:d4:33:d9:
                    3c:43:19:b5:e8:a9:87:37:e8:78:8d:10:c1:4e:9b:
                    ca:a5:a7:1e:a4:93:29:0b:56:0c:7a:00:7f:1b:29:
                    be:f1:74:dc:1d:d4:73:d6:c1:9e:a2:fc:ab:19:92:
                    77:d9:c0:a4:ca:66:03:cc:06:b0:30:ff:62:8d:e1:
                    8c:f0:ac:88:19:46:36:fa:aa:33:1a:d6:cc:58:81:
                    39:b9:99
                Exponent: 65537 (0x10001)
        X509v3 extensions:
            X509v3 Basic Constraints: 
                CA:FALSE
            Netscape Comment: 
                OpenSSL Generated Certificate
            X509v3 Subject Key Identifier: 
                5A:B7:73:3C:1E:50:5F:02:FE:A2:0D:F5:B5:E1:3C:B9:82:20:C8:B8
            X509v3 Authority Key Identifier: 
                DirName:/C=US/ST=US/L=US/O=US/OU=US/CN=US/emailAddress=US
                serial:BF:87:34:C9:E4:A7:C6:0B

    Signature Algorithm: md5WithRSAEncryption
         12:ce:eb:90:27:4f:f0:49:8d:00:f5:d1:8d:3d:ed:4d:af:bc:
         26:f9:51:50:20:63:dc:f3:32:52:07:10:88:e8:89:1a:b4:da:
         2c:d5:9b:be:54:7f:27:e6:de:d8:06:e5:a9:53:77:be:fc:d6:
         7b:11:51:3c:23:7d:43:47:4e:59:40:99:13:6b:10:aa:03:0e:
         35:0b:1c:56:8c:cb:a6:80:01:cd:5e:35:c1:92:5b:fa:9a:e5:
         4f:af:d1:20:6a:6a:90:84:c5:cc:2b:45:87:be:4d:ca:30:5d:
         b3:ea:66:1a:12:2b:64:b5:2d:2e:d4:57:be:0f:8a:71:10:91:
         ce:13:b1:4f:11:fc:e0:5f:69:33:b5:0a:1b:72:96:85:47:dc:
         fb:df:a1:83:7b:f4:e8:41:8a:5a:60:db:df:ba:4b:3d:7c:f6:
         41:86:08:79:c2:e8:eb:3c:fb:7d:99:ac:72:03:19:75:ce:24:
         2e:fd:93:e4:49:9c:63:ea:17:d6:cc:8e:36:ad:27:70:cd:af:
         e6:a3:a9:21:ad:b4:7f:b7:20:a1:95:e4:2a:e5:03:bb:d0:04:
         51:38:65:22:95:a7:46:89:c4:9e:6e:1c:9b:d5:d9:94:dc:de:
         07:35:3d:4a:be:3a:aa:e5:a1:19:41:df:ba:7e:83:c7:dd:a6:
         c4:9c:38:ec:f1:8b:69:84:32:57:69:7c:91:55:90:eb:8f:35:
         db:c8:7f:dd:ad:2c:20:8d:09:8d:95:80:76:5c:b4:d7:45:a0:
         86:a1:c6:f4:05:de:c7:ee:10:c0:4d:41:f3:ef:4c:25:85:18:
         a1:88:39:f7:83:ab:1c:bb:e9:85:5e:d4:87:5c:b6:6e:48:46:
         5c:ac:22:6e:b4:78:b2:43:e7:45:8a:a5:80:5b:6d:76:61:1c:
         27:0f:39:4b:37:3c:0d:3c:69:a4:9d:08:b3:cf:c6:33:d8:2f:
         3c:cc:f7:2e:67:b2:24:f6:eb:6d:68:17:e1:d7:a3:f1:c9:9e:
         f5:3d:91:92:e0:b2:f4:e2:c7:69:74:84:60:f6:86:87:fe:ce:
         35:38:d1:16:19:fb:f7:48:f8:8b:87:1e:f7:62:21:51:8c:bc:
         f8:21:f4:bc:7f:f3:15:67:64:e7:4e:54:4d:e9:f0:3b:2e:6e:
         16:e6:22:ff:a2:32:8f:d4:4c:27:8a:41:61:e2:fc:e3:78:61:
         33:5a:7d:3a:56:bc:53:62:e0:b9:0d:58:7f:47:ab:0d:40:82:
         f5:ea:26:03:e2:c5:a5:98:f7:dc:e0:50:d5:b2:ce:c2:0c:29:
         c1:22:83:74:68:2b:ac:60:40:fb:cb:46:73:93:4f:a2:5f:6d:
         50:6f:8c:00:8f:9d:ba:42
-----BEGIN CERTIFICATE-----
MIIGCjCCA/KgAwIBAgICEAAwDQYJKoZIhvcNAQEEBQAwYTELMAkGA1UEBhMCVVMx
CzAJBgNVBAgMAlVTMQswCQYDVQQHDAJVUzELMAkGA1UECgwCVVMxCzAJBgNVBAsM
AlVTMQswCQYDVQQDDAJVUzERMA8GCSqGSIb3DQEJARYCVVMwHhcNMjMwMzI3MDAz
MDM4WhcNMjQwMzI2MDAzMDM4WjBUMQswCQYDVQQGEwJVUzELMAkGA1UECAwCVVMx
CzAJBgNVBAoMAlVTMQswCQYDVQQLDAJVUzELMAkGA1UEAwwCVVMxETAPBgkqhkiG
9w0BCQEWAlVTMIICIjANBgkqhkiG9w0BAQEFAAOCAg8AMIICCgKCAgEAoy0NtzoB
w36t6kSQLL727GdYDLsEy1reCg3ef5QBE+wGfgKzre7wPfOqFGBKEGvCw+V/Q6+C
D2UQS/97hBkTKIoAlI6Y0W3IKLTNulKP0Wm5TY6+HMzNshZSXWIHEA845QoxJKZq
xHewG6gpzFukTXxFcHQ6GK1H2USNo2ff2rlMCct0CeupNR/I2y5+Dc342dhtfdmr
mFw+GxqeRhdodz1gRcFy73uf0uifh3H0WFOrSek8y3moLmtUzofK5pfH+WA2RLHP
VOI0YiYwAMoiT3LdghFp3TIMouql3LvZPnkJrFkaXAayJ4Oc0HAvGkQINZXOb6Fr
VDkuAcxSjT6QJbeskBGOiH/pHeLixeK7lv6+oEUsJA30xsq+w56LhUOVufHwzDNd
+Qqmb8K8tJkZjeOMJE8PVxhzVXxYsSz7eU77lNrHvKOdocwC5EzY8SGnSP4SF2sD
HFQfb+0yyzp6kExjzjzatRMEHB+eAjMVvhvwj6c+6A35xiKgYZDvfBnpuPCpfs3j
t0NZW+UXTDQtNYXEw071cUGMzcHWT2ZHu3CXsk/T6fGZeew3oeubDfzUM9k8Qxm1
6KmHN+h4jRDBTpvKpacepJMpC1YMegB/Gym+8XTcHdRz1sGeovyrGZJ32cCkymYD
zAawMP9ijeGM8KyIGUY2+qozGtbMWIE5uZkCAwEAAaOB2DCB1TAJBgNVHRMEAjAA
MCwGCWCGSAGG+EIBDQQfFh1PcGVuU1NMIEdlbmVyYXRlZCBDZXJ0aWZpY2F0ZTAd
BgNVHQ4EFgQUWrdzPB5QXwL+og31teE8uYIgyLgwewYDVR0jBHQwcqFlpGMwYTEL
MAkGA1UEBhMCVVMxCzAJBgNVBAgMAlVTMQswCQYDVQQHDAJVUzELMAkGA1UECgwC
VVMxCzAJBgNVBAsMAlVTMQswCQYDVQQDDAJVUzERMA8GCSqGSIb3DQEJARYCVVOC
CQC/hzTJ5KfGCzANBgkqhkiG9w0BAQQFAAOCAgEAEs7rkCdP8EmNAPXRjT3tTa+8
JvlRUCBj3PMyUgcQiOiJGrTaLNWbvlR/J+be2AblqVN3vvzWexFRPCN9Q0dOWUCZ
E2sQqgMONQscVozLpoABzV41wZJb+prlT6/RIGpqkITFzCtFh75NyjBds+pmGhIr
ZLUtLtRXvg+KcRCRzhOxTxH84F9pM7UKG3KWhUfc+9+hg3v06EGKWmDb37pLPXz2
QYYIecLo6zz7fZmscgMZdc4kLv2T5EmcY+oX1syONq0ncM2v5qOpIa20f7cgoZXk
KuUDu9AEUThlIpWnRonEnm4cm9XZlNzeBzU9Sr46quWhGUHfun6Dx92mxJw47PGL
aYQyV2l8kVWQ648128h/3a0sII0JjZWAdly010WghqHG9AXex+4QwE1B8+9MJYUY
oYg594OrHLvphV7Uh1y2bkhGXKwibrR4skPnRYqlgFttdmEcJw85Szc8DTxppJ0I
s8/GM9gvPMz3LmeyJPbrbWgX4dej8cme9T2RkuCy9OLHaXSEYPaGh/7ONTjRFhn7
90j4i4ce92IhUYy8+CH0vH/zFWdk505UTenwOy5uFuYi/6Iyj9RMJ4pBYeL843hh
M1p9Ola8U2LguQ1Yf0erDUCC9eomA+LFpZj33OBQ1bLOwgwpwSKDdGgrrGBA+8tG
c5NPol9tUG+MAI+dukI=
-----END CERTIFICATE-----
