Certificate:
    Data:
        Version: 3 (0x2)
        Serial Number: 4098 (0x1002)
    Signature Algorithm: md5WithRSAEncryption
        Issuer: C=US, ST=US, L=US, O=US, OU=US, CN=US/emailAddress=US
        Validity
            Not Before: Mar 27 00:37:38 2023 GMT
            Not After : Mar 26 00:37:38 2024 GMT
        Subject: C=US, ST=US, O=US, OU=US, CN=client/emailAddress=client
        Subject Public Key Info:
            Public Key Algorithm: rsaEncryption
                RSA Public-Key: (4096 bit)
                Modulus:
                    00:da:58:f2:f7:f2:6e:d4:2f:13:e4:6b:f5:94:ce:
                    cd:2c:4a:fd:c9:2a:a8:c0:32:d9:33:55:e7:02:30:
                    5a:44:ea:37:ff:92:cb:4c:d4:12:2c:f2:a4:47:06:
                    4c:56:e5:32:2e:9e:00:29:ba:19:b8:21:40:fc:10:
                    c6:2d:b3:74:48:0d:95:e9:21:ad:a5:0d:e6:ba:02:
                    91:48:2e:8f:df:61:ee:02:74:64:7e:7a:8a:a4:69:
                    8f:73:9d:92:88:7a:2e:0f:1e:71:1c:c7:cc:9e:7a:
                    22:e9:0b:c7:02:a8:31:55:b3:0d:f6:90:65:72:45:
                    04:68:2b:f5:3c:17:e9:3d:67:3b:8b:b7:aa:5e:17:
                    14:11:77:b4:0b:1f:4b:f7:61:ad:1c:7e:8e:7a:7c:
                    82:7e:fb:7e:60:ac:43:5f:90:c1:dc:49:a8:1d:cd:
                    fb:a6:c8:2e:59:f5:ba:e1:b4:60:b7:38:16:cb:76:
                    5a:fa:c9:d6:2f:e8:8b:17:54:71:a7:a7:ba:7b:fa:
                    67:46:0c:25:df:7b:c1:cb:fe:de:05:9b:18:05:92:
                    6c:5b:7f:fc:4b:02:9d:17:48:d7:25:5f:9f:7c:80:
                    e7:f0:dc:0d:6f:82:5a:42:4b:1d:db:2b:15:fa:2a:
                    2b:50:5b:61:e3:9b:ec:b9:f4:48:65:8b:b8:5e:49:
                    4e:07:5f:08:e2:24:f4:a4:e5:e1:6b:3b:89:97:46:
                    56:54:59:d7:d9:30:cb:76:e4:ca:60:4a:57:bb:a0:
                    b3:03:d2:75:09:aa:9e:18:9d:ec:c3:9e:f0:b0:04:
                    d1:ed:75:62:d5:95:63:9e:6d:e9:18:a2:44:87:8c:
                    9b:93:eb:07:83:f6:45:0c:41:5e:0f:8b:e7:56:56:
                    48:3c:20:b8:a6:56:c0:0c:66:5a:b3:c2:5e:97:a6:
                    55:9e:9c:17:80:ca:ea:67:e9:fd:17:85:c7:53:98:
                    3b:67:90:a6:75:fb:a7:53:3c:a3:8f:c2:d1:70:3f:
                    85:ea:90:ff:6f:bd:aa:dd:98:fe:4b:fd:20:7b:23:
                    02:ee:ea:3b:bc:0b:70:8a:1c:98:3c:f3:e9:fa:2b:
                    a9:c9:60:98:0d:4f:89:80:2e:6d:c7:07:94:9a:11:
                    8f:1e:e7:cd:15:a9:d6:05:28:4b:5b:d1:51:a6:d1:
                    68:82:38:8f:87:21:21:e3:49:7f:a9:6f:19:64:33:
                    3d:5d:b5:84:a9:78:35:0d:7f:7b:7e:44:f2:af:fb:
                    da:ac:cb:34:b9:ce:ee:b2:30:25:91:37:1e:98:ae:
                    3d:61:f0:3a:b0:a7:45:02:aa:c3:7c:88:72:0a:4e:
                    1e:b5:b8:58:be:00:ef:5b:02:03:47:5e:5d:52:70:
                    ad:30:2b
                Exponent: 65537 (0x10001)
        X509v3 extensions:
            X509v3 Basic Constraints: 
                CA:FALSE
            Netscape Comment: 
                OpenSSL Generated Certificate
            X509v3 Subject Key Identifier: 
                2A:D9:6A:A1:03:B2:DF:9D:C0:06:CF:1B:C4:3C:B5:24:B2:C8:A5:01
            X509v3 Authority Key Identifier: 
                DirName:/C=US/ST=US/L=US/O=US/OU=US/CN=US/emailAddress=US
                serial:BF:87:34:C9:E4:A7:C6:0B

    Signature Algorithm: md5WithRSAEncryption
         64:3d:c2:54:0e:ca:d2:70:09:b5:53:d1:81:d5:e4:fa:32:89:
         8b:52:c5:39:f7:34:78:e4:8a:b0:dc:c0:ee:68:cc:f6:ac:19:
         12:33:f0:6d:fd:3d:d6:d3:b9:57:5b:52:cd:30:f0:d0:69:50:
         c8:bc:8a:07:6a:b5:f2:07:4c:15:b0:df:eb:b8:8b:7b:cd:9f:
         40:df:e1:94:33:ce:14:b8:0c:ee:b0:d8:00:b4:2b:65:9d:2f:
         14:52:08:61:4c:5b:a4:83:fa:4a:10:c9:ec:b8:bc:85:51:39:
         bb:be:8d:7c:4d:32:57:79:6c:de:49:cb:59:5e:6f:df:f2:bd:
         18:ef:ef:03:e0:c6:a7:79:4d:b3:5f:11:4d:da:7f:a8:bf:2c:
         6f:30:30:6c:68:83:44:c9:c0:6f:b8:55:4c:56:9f:a5:03:94:
         15:a4:45:18:6d:84:91:88:c5:b6:c2:ba:19:9d:ba:fe:cc:97:
         97:58:af:35:83:af:0c:c1:30:2d:3d:7c:d6:a8:7e:f3:f5:e3:
         19:36:83:5c:1e:84:a1:93:26:86:c7:a9:e3:a0:0c:10:aa:93:
         12:19:0a:04:dc:7c:2d:47:95:47:b5:6e:00:63:0f:af:c3:3f:
         0a:a0:85:04:10:76:1e:5c:68:80:05:7f:31:f5:07:09:0b:9e:
         46:39:0d:7b:e1:60:18:25:b8:a9:b2:48:eb:a8:12:e4:7b:6b:
         42:65:37:35:35:86:ea:2c:8e:cc:88:9b:f5:0e:81:49:57:79:
         9f:3e:37:3c:50:e2:b7:4a:d9:ec:30:45:34:e9:dd:35:9b:4f:
         14:4a:6b:b6:6c:4d:b2:ce:a5:16:0f:fe:86:93:94:d6:4e:fb:
         fc:84:c1:86:13:b9:7a:41:6b:62:14:c4:57:b0:72:d7:b1:78:
         52:c8:2c:f9:21:6f:53:34:9c:70:88:5a:61:fb:b0:2b:4f:39:
         e8:3d:d9:45:76:bd:31:70:1f:ee:3f:c7:a3:11:98:66:b3:25:
         c0:6f:9c:15:b5:5d:89:36:11:42:72:a2:7b:f9:8b:45:6a:f0:
         ef:07:d4:6b:66:11:c7:fc:e2:bc:50:9e:ec:68:9f:68:6b:ca:
         89:34:e5:04:72:00:e4:d4:d3:b9:ea:86:03:e0:e9:20:a1:e2:
         31:1d:1d:ac:a7:6a:10:c2:0a:40:e8:a4:c7:8b:9e:e1:ed:72:
         d2:af:57:00:b5:0c:70:66:0b:c0:5b:79:fd:62:6c:84:c0:e1:
         55:09:7c:f8:44:56:2f:a2:4f:f9:5b:2c:bc:36:5d:89:a1:97:
         f4:44:d5:4f:79:d2:06:a7:e9:bc:b1:92:fd:11:ec:9e:ab:8c:
         9b:fc:61:16:b1:c7:9d:c4
-----BEGIN CERTIFICATE-----
MIIGEjCCA/qgAwIBAgICEAIwDQYJKoZIhvcNAQEEBQAwYTELMAkGA1UEBhMCVVMx
CzAJBgNVBAgMAlVTMQswCQYDVQQHDAJVUzELMAkGA1UECgwCVVMxCzAJBgNVBAsM
AlVTMQswCQYDVQQDDAJVUzERMA8GCSqGSIb3DQEJARYCVVMwHhcNMjMwMzI3MDAz
NzM4WhcNMjQwMzI2MDAzNzM4WjBcMQswCQYDVQQGEwJVUzELMAkGA1UECAwCVVMx
CzAJBgNVBAoMAlVTMQswCQYDVQQLDAJVUzEPMA0GA1UEAwwGY2xpZW50MRUwEwYJ
KoZIhvcNAQkBFgZjbGllbnQwggIiMA0GCSqGSIb3DQEBAQUAA4ICDwAwggIKAoIC
AQDaWPL38m7ULxPka/WUzs0sSv3JKqjAMtkzVecCMFpE6jf/kstM1BIs8qRHBkxW
5TIungApuhm4IUD8EMYts3RIDZXpIa2lDea6ApFILo/fYe4CdGR+eoqkaY9znZKI
ei4PHnEcx8yeeiLpC8cCqDFVsw32kGVyRQRoK/U8F+k9ZzuLt6peFxQRd7QLH0v3
Ya0cfo56fIJ++35grENfkMHcSagdzfumyC5Z9brhtGC3OBbLdlr6ydYv6IsXVHGn
p7p7+mdGDCXfe8HL/t4FmxgFkmxbf/xLAp0XSNclX598gOfw3A1vglpCSx3bKxX6
KitQW2Hjm+y59Ehli7heSU4HXwjiJPSk5eFrO4mXRlZUWdfZMMt25MpgSle7oLMD
0nUJqp4YnezDnvCwBNHtdWLVlWOebekYokSHjJuT6weD9kUMQV4Pi+dWVkg8ILim
VsAMZlqzwl6XplWenBeAyupn6f0XhcdTmDtnkKZ1+6dTPKOPwtFwP4XqkP9vvard
mP5L/SB7IwLu6ju8C3CKHJg88+n6K6nJYJgNT4mALm3HB5SaEY8e580VqdYFKEtb
0VGm0WiCOI+HISHjSX+pbxlkMz1dtYSpeDUNf3t+RPKv+9qsyzS5zu6yMCWRNx6Y
rj1h8Dqwp0UCqsN8iHIKTh61uFi+AO9bAgNHXl1ScK0wKwIDAQABo4HYMIHVMAkG
A1UdEwQCMAAwLAYJYIZIAYb4QgENBB8WHU9wZW5TU0wgR2VuZXJhdGVkIENlcnRp
ZmljYXRlMB0GA1UdDgQWBBQq2WqhA7LfncAGzxvEPLUkssilATB7BgNVHSMEdDBy
oWWkYzBhMQswCQYDVQQGEwJVUzELMAkGA1UECAwCVVMxCzAJBgNVBAcMAlVTMQsw
CQYDVQQKDAJVUzELMAkGA1UECwwCVVMxCzAJBgNVBAMMAlVTMREwDwYJKoZIhvcN
AQkBFgJVU4IJAL+HNMnkp8YLMA0GCSqGSIb3DQEBBAUAA4ICAQBkPcJUDsrScAm1
U9GB1eT6MomLUsU59zR45Iqw3MDuaMz2rBkSM/Bt/T3W07lXW1LNMPDQaVDIvIoH
arXyB0wVsN/ruIt7zZ9A3+GUM84UuAzusNgAtCtlnS8UUghhTFukg/pKEMnsuLyF
UTm7vo18TTJXeWzeSctZXm/f8r0Y7+8D4ManeU2zXxFN2n+ovyxvMDBsaINEycBv
uFVMVp+lA5QVpEUYbYSRiMW2wroZnbr+zJeXWK81g68MwTAtPXzWqH7z9eMZNoNc
HoShkyaGx6njoAwQqpMSGQoE3HwtR5VHtW4AYw+vwz8KoIUEEHYeXGiABX8x9QcJ
C55GOQ174WAYJbipskjrqBLke2tCZTc1NYbqLI7MiJv1DoFJV3mfPjc8UOK3Stns
MEU06d01m08USmu2bE2yzqUWD/6Gk5TWTvv8hMGGE7l6QWtiFMRXsHLXsXhSyCz5
IW9TNJxwiFph+7ArTznoPdlFdr0xcB/uP8ejEZhmsyXAb5wVtV2JNhFCcqJ7+YtF
avDvB9RrZhHH/OK8UJ7saJ9oa8qJNOUEcgDk1NO56oYD4OkgoeIxHR2sp2oQwgpA
6KTHi57h7XLSr1cAtQxwZgvAW3n9YmyEwOFVCXz4RFYvok/5Wyy8Nl2JoZf0RNVP
edIGp+m8sZL9Eeyeq4yb/GEWscedxA==
-----END CERTIFICATE-----
